TN:
SF:/home/ptesic@syrmia.com/Desktop/VS/compound_unit/2019_Compound-Units-master/base_unit.hpp
FN:41,_ZN4unit5meterILi1EE3strEv
FN:41,_ZN4unit5meterILi5EE3strEv
FN:41,_ZN4unit5meterILin8EE3strEv
FN:41,_ZN4unit5meterILi6EE3strEv
FN:41,_ZN4unit5meterILi2EE3strEv
FN:65,_ZN4unit6secondILi2EE3strEv
FN:65,_ZN4unit6secondILi3EE3strEv
FN:65,_ZN4unit6secondILin4EE3strEv
FN:65,_ZN4unit6secondILin2EE3strEv
FN:65,_ZN4unit6secondILi0EE3strEv
FN:65,_ZN4unit6secondILin3EE3strEv
FNDA:1,_ZN4unit6secondILi0EE3strEv
FNDA:1,_ZN4unit5meterILi2EE3strEv
FNDA:1,_ZN4unit6secondILin3EE3strEv
FNDA:3,_ZN4unit6secondILin2EE3strEv
FNDA:2,_ZN4unit6secondILin4EE3strEv
FNDA:1,_ZN4unit5meterILin8EE3strEv
FNDA:1,_ZN4unit5meterILi5EE3strEv
FNDA:1,_ZN4unit5meterILi6EE3strEv
FNDA:2,_ZN4unit6secondILi3EE3strEv
FNDA:6,_ZN4unit5meterILi1EE3strEv
FNDA:1,_ZN4unit6secondILi2EE3strEv
FNF:11
FNH:11
DA:41,10
DA:43,10
DA:65,10
DA:67,10
LF:4
LH:4
end_of_record
TN:
SF:/home/ptesic@syrmia.com/Desktop/VS/compound_unit/2019_Compound-Units-master/compound_unit.hpp
FN:181,_ZN4unit13to_str_type_tINS_13compound_unitIJNS_6secondILin3EEEEEELb0EE3strB5cxx11Ev
FN:181,_ZN4unit13to_str_type_tINS_13compound_unitIJNS_6secondILi0EEEEEELb0EE3strB5cxx11Ev
FN:181,_ZN4unit13to_str_type_tINS_13compound_unitIJNS_6secondILi3EEENS_5meterILi1EEEEEELb0EE3strB5cxx11Ev
FN:181,_ZN4unit13to_str_type_tINS_13compound_unitIJNS_5meterILi6EEENS_6secondILin4EEENS2_ILin8EEEEEELb0EE3strB5cxx11Ev
FN:181,_ZN4unit13to_str_type_tINS_13compound_unitIJNS_5meterILi1EEENS_6secondILin2EEEEEELb0EE3strB5cxx11Ev
FN:181,_ZN4unit13to_str_type_tINS_13compound_unitIJNS_5meterILi5EEENS_6secondILin3EEEEEELb0EE3strB5cxx11Ev
FN:181,_ZN4unit13to_str_type_tINS_13compound_unitIJNS_5meterILin8EEEEEELb0EE3strB5cxx11Ev
FN:181,_ZN4unit13to_str_type_tINS_13compound_unitIJNS_5meterILi1EEEEEELb0EE3strB5cxx11Ev
FN:181,_ZN4unit13to_str_type_tINS_13compound_unitIJNS_6secondILin4EEEEEELb0EE3strB5cxx11Ev
FN:181,_ZN4unit13to_str_type_tINS_13compound_unitIJNS_5meterILi2EEENS2_ILi6EEENS_6secondILin4EEENS2_ILin8EEEEEELb0EE3strB5cxx11Ev
FN:181,_ZN4unit13to_str_type_tINS_13compound_unitIJNS_6secondILi2EEENS2_ILi3EEENS_5meterILi1EEENS2_ILin2EEEEEELb0EE3strB5cxx11Ev
FN:181,_ZN4unit13to_str_type_tINS_13compound_unitIJNS_6secondILin2EEEEEELb0EE3strB5cxx11Ev
FN:181,_ZN4unit13to_str_type_tINS_13compound_unitIJNS_6secondILi3EEENS_5meterILi1EEENS2_ILin2EEEEEELb0EE3strB5cxx11Ev
FN:181,_ZN4unit13to_str_type_tINS_13compound_unitIJNS_5meterILi1EEENS_6secondILi0EEEEEELb0EE3strB5cxx11Ev
FN:181,_ZN4unit13to_str_type_tINS_13compound_unitIJNS_6secondILin4EEENS_5meterILin8EEEEEELb0EE3strB5cxx11Ev
FN:192,_ZN4unit13to_str_type_tINS_13compound_unitIJEEELb1EE3strB5cxx11Ev
FNDA:1,_ZN4unit13to_str_type_tINS_13compound_unitIJNS_5meterILin8EEEEEELb0EE3strB5cxx11Ev
FNDA:1,_ZN4unit13to_str_type_tINS_13compound_unitIJNS_6secondILin4EEEEEELb0EE3strB5cxx11Ev
FNDA:2,_ZN4unit13to_str_type_tINS_13compound_unitIJNS_5meterILi1EEEEEELb0EE3strB5cxx11Ev
FNDA:3,_ZN4unit13to_str_type_tINS_13compound_unitIJNS_6secondILin2EEEEEELb0EE3strB5cxx11Ev
FNDA:1,_ZN4unit13to_str_type_tINS_13compound_unitIJNS_6secondILi2EEENS2_ILi3EEENS_5meterILi1EEENS2_ILin2EEEEEELb0EE3strB5cxx11Ev
FNDA:9,_ZN4unit13to_str_type_tINS_13compound_unitIJEEELb1EE3strB5cxx11Ev
FNDA:1,_ZN4unit13to_str_type_tINS_13compound_unitIJNS_5meterILi2EEENS2_ILi6EEENS_6secondILin4EEENS2_ILin8EEEEEELb0EE3strB5cxx11Ev
FNDA:1,_ZN4unit13to_str_type_tINS_13compound_unitIJNS_6secondILin4EEENS_5meterILin8EEEEEELb0EE3strB5cxx11Ev
FNDA:1,_ZN4unit13to_str_type_tINS_13compound_unitIJNS_6secondILi3EEENS_5meterILi1EEENS2_ILin2EEEEEELb0EE3strB5cxx11Ev
FNDA:1,_ZN4unit13to_str_type_tINS_13compound_unitIJNS_5meterILi1EEENS_6secondILi0EEEEEELb0EE3strB5cxx11Ev
FNDA:1,_ZN4unit13to_str_type_tINS_13compound_unitIJNS_5meterILi6EEENS_6secondILin4EEENS2_ILin8EEEEEELb0EE3strB5cxx11Ev
FNDA:1,_ZN4unit13to_str_type_tINS_13compound_unitIJNS_6secondILi3EEENS_5meterILi1EEEEEELb0EE3strB5cxx11Ev
FNDA:1,_ZN4unit13to_str_type_tINS_13compound_unitIJNS_6secondILi0EEEEEELb0EE3strB5cxx11Ev
FNDA:1,_ZN4unit13to_str_type_tINS_13compound_unitIJNS_6secondILin3EEEEEELb0EE3strB5cxx11Ev
FNDA:3,_ZN4unit13to_str_type_tINS_13compound_unitIJNS_5meterILi1EEENS_6secondILin2EEEEEELb0EE3strB5cxx11Ev
FNDA:1,_ZN4unit13to_str_type_tINS_13compound_unitIJNS_5meterILi5EEENS_6secondILin3EEEEEELb0EE3strB5cxx11Ev
FNF:16
FNH:16
BRDA:184,0,0,20
BRDA:184,0,1,0
BRDA:184,0,2,20
BRDA:184,0,3,0
BRDA:184,0,4,20
BRDA:184,0,5,0
BRDA:184,0,6,20
BRDA:184,0,7,0
BRDA:184,0,8,20
BRDA:184,0,9,0
BRDA:194,0,0,9
BRDA:194,0,1,0
BRF:12
BRH:6
DA:181,20
DA:184,20
DA:192,9
DA:194,9
LF:4
LH:4
end_of_record
TN:
SF:/home/ptesic@syrmia.com/Desktop/VS/compound_unit/2019_Compound-Units-master/demo.cpp
FN:8,main
FNDA:1,main
FNF:1
FNH:1
BRDA:17,0,0,1
BRDA:17,0,1,0
BRDA:18,0,0,1
BRDA:18,0,1,0
BRDA:18,0,2,1
BRDA:18,0,3,0
BRDA:29,0,0,1
BRDA:29,0,1,0
BRDA:30,0,0,1
BRDA:30,0,1,0
BRDA:30,0,2,1
BRDA:30,0,3,0
BRDA:41,0,0,1
BRDA:41,0,1,0
BRDA:42,0,0,1
BRDA:42,0,1,0
BRDA:42,0,2,1
BRDA:42,0,3,0
BRDA:54,0,0,1
BRDA:54,0,1,0
BRDA:55,0,0,1
BRDA:55,0,1,0
BRDA:55,0,2,1
BRDA:55,0,3,0
BRDA:66,0,0,1
BRDA:66,0,1,0
BRDA:67,0,0,1
BRDA:67,0,1,0
BRDA:67,0,2,1
BRDA:67,0,3,0
BRDA:77,0,0,1
BRDA:77,0,1,0
BRDA:78,0,0,1
BRDA:78,0,1,0
BRDA:78,0,2,1
BRDA:78,0,3,0
BRDA:87,0,0,1
BRDA:87,0,1,0
BRDA:88,0,0,1
BRDA:88,0,1,0
BRDA:88,0,2,1
BRDA:88,0,3,0
BRDA:106,0,0,1
BRDA:106,0,1,0
BRDA:107,0,0,1
BRDA:107,0,1,0
BRDA:107,0,2,1
BRDA:107,0,3,0
BRDA:118,0,0,1
BRDA:118,0,1,0
BRDA:119,0,0,1
BRDA:119,0,1,0
BRDA:119,0,2,1
BRDA:119,0,3,0
BRF:54
BRH:27
DA:8,1
DA:17,2
DA:18,1
DA:29,2
DA:30,1
DA:41,2
DA:42,1
DA:54,2
DA:55,1
DA:66,2
DA:67,1
DA:77,2
DA:78,1
DA:87,2
DA:88,1
DA:106,2
DA:107,1
DA:118,2
DA:119,1
DA:122,1
LF:20
LH:20
end_of_record
TN:
SF:/usr/include/c++/9/bits/basic_string.h
FN:247,_ZNSt7__cxx1112basic_stringIcSt11char_traitsIcESaIcEE16_M_construct_auxIPKcEEvT_S8_St12__false_type
FN:247,_ZNSt7__cxx1112basic_stringIcSt11char_traitsIcESaIcEE16_M_construct_auxIPcEEvT_S7_St12__false_type
FN:267,_ZNSt7__cxx1112basic_stringIcSt11char_traitsIcESaIcEE12_M_constructIPKcEEvT_S8_
FN:267,_ZNSt7__cxx1112basic_stringIcSt11char_traitsIcESaIcEE12_M_constructIPcEEvT_S7_
FN:529,_ZNSt7__cxx1112basic_stringIcSt11char_traitsIcESaIcEEC2IS3_EEPKcRKS3_
FN:629,_ZNSt7__cxx1112basic_stringIcSt11char_traitsIcESaIcEEC2IPcvEET_S7_RKS3_
FN:6100,_ZStplIcSt11char_traitsIcESaIcEENSt7__cxx1112basic_stringIT_T0_T1_EEOS8_S9_
FN:6124,_ZStplIcSt11char_traitsIcESaIcEENSt7__cxx1112basic_stringIT_T0_T1_EEOS8_PKS5_
FN:6549,_ZNSt7__cxx119to_stringEi
FNDA:29,_ZNSt7__cxx1112basic_stringIcSt11char_traitsIcESaIcEE12_M_constructIPKcEEvT_S8_
FNDA:20,_ZNSt7__cxx119to_stringEi
FNDA:20,_ZStplIcSt11char_traitsIcESaIcEENSt7__cxx1112basic_stringIT_T0_T1_EEOS8_PKS5_
FNDA:20,_ZNSt7__cxx1112basic_stringIcSt11char_traitsIcESaIcEEC2IPcvEET_S7_RKS3_
FNDA:40,_ZStplIcSt11char_traitsIcESaIcEENSt7__cxx1112basic_stringIT_T0_T1_EEOS8_S9_
FNDA:20,_ZNSt7__cxx1112basic_stringIcSt11char_traitsIcESaIcEE12_M_constructIPcEEvT_S7_
FNDA:20,_ZNSt7__cxx1112basic_stringIcSt11char_traitsIcESaIcEE16_M_construct_auxIPcEEvT_S7_St12__false_type
FNDA:29,_ZNSt7__cxx1112basic_stringIcSt11char_traitsIcESaIcEE16_M_construct_auxIPKcEEvT_S8_St12__false_type
FNDA:29,_ZNSt7__cxx1112basic_stringIcSt11char_traitsIcESaIcEEC2IS3_EEPKcRKS3_
FNF:9
FNH:9
BRDA:251,0,0,49
BRDA:251,0,1,0
BRDA:531,0,0,29
BRDA:531,0,1,0
BRDA:531,0,2,29
BRDA:531,0,3,0
BRDA:531,0,4,29
BRDA:531,0,5,0
BRDA:632,0,0,20
BRDA:632,0,1,0
BRDA:6105,0,0,0
BRDA:6105,0,1,40
BRDA:6105,0,2,0
BRDA:6105,0,3,0
BRDA:6107,0,0,0
BRDA:6107,0,1,40
BRF:16
BRH:7
DA:247,49
DA:251,49
DA:252,49
DA:267,49
DA:270,49
DA:271,49
DA:529,29
DA:530,29
DA:531,29
DA:629,20
DA:631,20
DA:632,20
DA:6100,40
DA:6103,40
DA:6104,40
DA:6105,40
DA:6106,0
DA:6107,40
DA:6124,20
DA:6126,20
DA:6549,20
DA:6551,20
LF:22
LH:21
end_of_record
TN:
SF:/usr/include/c++/9/bits/basic_string.tcc
FN:206,_ZNSt7__cxx1112basic_stringIcSt11char_traitsIcESaIcEE12_M_constructIPcEEvT_S7_St20forward_iterator_tag
FN:206,_ZNSt7__cxx1112basic_stringIcSt11char_traitsIcESaIcEE12_M_constructIPKcEEvT_S8_St20forward_iterator_tag
FNDA:20,_ZNSt7__cxx1112basic_stringIcSt11char_traitsIcESaIcEE12_M_constructIPcEEvT_S7_St20forward_iterator_tag
FNDA:29,_ZNSt7__cxx1112basic_stringIcSt11char_traitsIcESaIcEE12_M_constructIPKcEEvT_S8_St20forward_iterator_tag
FNF:2
FNH:2
BRDA:211,0,0,0
BRDA:211,0,1,49
BRDA:211,0,2,0
BRDA:211,0,3,0
BRDA:211,0,4,0
BRDA:211,0,5,49
BRDA:215,0,0,49
BRDA:215,0,1,0
BRDA:217,0,0,0
BRDA:217,0,1,49
BRDA:219,0,0,-
BRDA:219,0,1,-
BRDA:219,0,2,-
BRDA:219,0,3,-
BRDA:220,0,0,-
BRDA:220,0,1,-
BRDA:225,0,0,49
BRDA:225,0,1,0
BRDA:228,0,0,0
BRDA:228,0,1,0
BRDA:232,0,0,49
BRDA:232,0,1,0
BRF:22
BRH:6
DA:206,49
DA:211,49
DA:212,0
DA:215,49
DA:217,49
DA:219,0
DA:220,0
DA:225,49
DA:226,0
DA:228,0
DA:229,0
DA:232,49
DA:233,49
LF:13
LH:7
end_of_record
TN:
SF:/usr/include/c++/9/bits/char_traits.h
FN:100,_ZN9__gnu_cxx11char_traitsIcE2eqERKcS3_
FN:161,_ZN9__gnu_cxx11char_traitsIcE6lengthEPKc
FN:336,_ZNSt11char_traitsIcE6lengthEPKc
FN:368,_ZNSt11char_traitsIcE4copyEPcPKcm
FNDA:0,_ZN9__gnu_cxx11char_traitsIcE6lengthEPKc
FNDA:0,_ZNSt11char_traitsIcE4copyEPcPKcm
FNDA:0,_ZN9__gnu_cxx11char_traitsIcE2eqERKcS3_
FNDA:29,_ZNSt11char_traitsIcE6lengthEPKc
FNF:4
FNH:1
BRDA:165,0,0,-
BRDA:165,0,1,-
BRDA:339,0,0,0
BRDA:339,0,1,29
BRDA:370,0,0,-
BRDA:370,0,1,-
BRF:6
BRH:1
DA:100,0
DA:101,0
DA:161,0
DA:164,0
DA:165,0
DA:166,0
DA:167,0
DA:236,29
DA:336,29
DA:339,29
DA:340,0
DA:342,29
DA:368,0
DA:370,0
DA:371,0
DA:372,0
LF:16
LH:4
end_of_record
TN:
SF:/usr/include/c++/9/bits/move.h
FN:99,_ZSt4moveIRSaIcEEONSt16remove_referenceIT_E4typeEOS3_
FN:99,_ZSt4moveIRNSt7__cxx1112basic_stringIcSt11char_traitsIcESaIcEEEEONSt16remove_referenceIT_E4typeEOS8_
FNDA:60,_ZSt4moveIRNSt7__cxx1112basic_stringIcSt11char_traitsIcESaIcEEEEONSt16remove_referenceIT_E4typeEOS8_
FNDA:0,_ZSt4moveIRSaIcEEONSt16remove_referenceIT_E4typeEOS3_
FNF:2
FNH:1
DA:99,60
DA:100,60
LF:2
LH:2
end_of_record
TN:
SF:/usr/include/c++/9/bits/stl_iterator_base_funcs.h
FN:98,_ZSt10__distanceIPKcENSt15iterator_traitsIT_E15difference_typeES3_S3_St26random_access_iterator_tag
FN:98,_ZSt10__distanceIPcENSt15iterator_traitsIT_E15difference_typeES2_S2_St26random_access_iterator_tag
FN:138,_ZSt8distanceIPKcENSt15iterator_traitsIT_E15difference_typeES3_S3_
FN:138,_ZSt8distanceIPcENSt15iterator_traitsIT_E15difference_typeES2_S2_
FNDA:20,_ZSt8distanceIPcENSt15iterator_traitsIT_E15difference_typeES2_S2_
FNDA:20,_ZSt10__distanceIPcENSt15iterator_traitsIT_E15difference_typeES2_S2_St26random_access_iterator_tag
FNDA:29,_ZSt10__distanceIPKcENSt15iterator_traitsIT_E15difference_typeES3_S3_St26random_access_iterator_tag
FNDA:29,_ZSt8distanceIPKcENSt15iterator_traitsIT_E15difference_typeES3_S3_
FNF:4
FNH:4
DA:98,49
DA:104,49
DA:138,49
DA:141,49
DA:142,98
LF:5
LH:5
end_of_record
TN:
SF:/usr/include/c++/9/bits/stl_iterator_base_types.h
FN:205,_ZSt19__iterator_categoryIPKcENSt15iterator_traitsIT_E17iterator_categoryERKS3_
FN:205,_ZSt19__iterator_categoryIPcENSt15iterator_traitsIT_E17iterator_categoryERKS2_
FNDA:20,_ZSt19__iterator_categoryIPcENSt15iterator_traitsIT_E17iterator_categoryERKS2_
FNDA:29,_ZSt19__iterator_categoryIPKcENSt15iterator_traitsIT_E17iterator_categoryERKS3_
FNF:2
FNH:2
DA:205,49
DA:206,49
LF:2
LH:2
end_of_record
TN:
SF:/usr/include/c++/9/ext/new_allocator.h
FN:80,_ZN9__gnu_cxx13new_allocatorIcEC2Ev
FN:89,_ZN9__gnu_cxx13new_allocatorIcED2Ev
FNDA:0,_ZN9__gnu_cxx13new_allocatorIcEC2Ev
FNDA:0,_ZN9__gnu_cxx13new_allocatorIcED2Ev
FNF:2
FNH:0
DA:80,0
DA:89,0
LF:2
LH:0
end_of_record
TN:
SF:/usr/include/c++/9/ext/string_conversions.h
FN:99,_ZN9__gnu_cxx12__to_xstringINSt7__cxx1112basic_stringIcSt11char_traitsIcESaIcEEEcEET_PFiPT0_mPKS8_P13__va_list_tagEmSB_z
FNDA:20,_ZN9__gnu_cxx12__to_xstringINSt7__cxx1112basic_stringIcSt11char_traitsIcESaIcEEEcEET_PFiPT0_mPKS8_P13__va_list_tagEmSB_z
FNF:1
FNH:1
BRDA:111,0,0,20
BRDA:111,0,1,0
BRDA:115,0,0,20
BRDA:115,0,1,0
BRF:4
BRH:2
DA:99,20
DA:105,20
DA:109,20
DA:111,20
DA:113,20
DA:115,20
LF:6
LH:6
end_of_record
TN:
SF:/usr/include/c++/9/ext/type_traits.h
FN:152,_ZN9__gnu_cxx17__is_null_pointerIKcEEbPT_
FN:152,_ZN9__gnu_cxx17__is_null_pointerIcEEbPT_
FNDA:29,_ZN9__gnu_cxx17__is_null_pointerIKcEEbPT_
FNDA:20,_ZN9__gnu_cxx17__is_null_pointerIcEEbPT_
FNF:2
FNH:2
DA:152,49
DA:153,49
LF:2
LH:2
end_of_record
